; Function Attrs: mustprogress uwtable
define hidden void @_ZN6google8protobuf8compiler4java17ClassNameResolver12GetClassNameB5cxx11EPKNS0_17ServiceDescriptorEbb(ptr noalias sret(%"class.std::__cxx11::basic_string") align 8 %agg.result, ptr noundef nonnull align 8 dereferenceable(112) %this, ptr noundef readonly captures(none) %descriptor, i1 noundef zeroext %immutable, i1 noundef zeroext %kotlin) local_unnamed_addr #3 align 2 personality ptr @__gxx_personality_v0 {
invoke.cont6:
  %ref.tmp = alloca %"class.std::__cxx11::basic_string", align 8
  call fastcc void @_ZN6google8protobuf8compiler4java12_GLOBAL__N_123ClassNameWithoutPackageB5cxx11EPKNS0_17ServiceDescriptorEb(ptr noalias align 8 %ref.tmp, ptr noundef %descriptor)
  %call = call { i64, ptr } @_ZNKSt7__cxx1112basic_stringIcSt11char_traitsIcESaIcEEcvSt17basic_string_viewIcS2_EEv(ptr noundef nonnull align 8 dereferenceable(32) %ref.tmp) #18
  %file_.i = getelementptr inbounds nuw i8, ptr %descriptor, i64 16
  %0 = load ptr, ptr %file_.i, align 8
  %options_.i.i.i = getelementptr inbounds nuw i8, ptr %0, i64 128
  %1 = load ptr, ptr %options_.i.i.i, align 8
  %java_multiple_files_.i.i.i.i = getelementptr inbounds nuw i8, ptr %1, i64 160
  %2 = load i8, ptr %java_multiple_files_.i.i.i.i, align 8
  %tobool.i.i.i.i = trunc i8 %2 to i1
  %3 = extractvalue { i64, ptr } %call, 1
  %4 = extractvalue { i64, ptr } %call, 0
  invoke void @_ZN6google8protobuf8compiler4java17ClassNameResolver16GetClassFullNameB5cxx11ESt17basic_string_viewIcSt11char_traitsIcEEPKNS0_14FileDescriptorEbbb(ptr sret(%"class.std::__cxx11::basic_string") align 8 %agg.result, ptr noundef nonnull align 8 dereferenceable(112) %this, i64 %4, ptr %3, ptr noundef nonnull %0, i1 noundef zeroext %immutable, i1 noundef zeroext %tobool.i.i.i.i, i1 noundef zeroext %kotlin)
          to label %invoke.cont9 unwind label %lpad

invoke.cont9:                                     ; preds = %invoke.cont6
  call void @_ZNSt7__cxx1112basic_stringIcSt11char_traitsIcESaIcEED1Ev(ptr noundef nonnull align 8 dereferenceable(32) %ref.tmp) #18
  ret void

lpad:                                             ; preds = %invoke.cont6
  %5 = landingpad { ptr, i32 }
          cleanup
  call void @_ZNSt7__cxx1112basic_stringIcSt11char_traitsIcESaIcEED1Ev(ptr noundef nonnull align 8 dereferenceable(32) %ref.tmp) #18
  resume { ptr, i32 } %5
}